; Function Attrs: mustprogress nofree norecurse nosync nounwind willreturn memory(argmem: write) uwtable
define internal void @cdcon(ptr noundef writeonly captures(none) initializes((144, 154)) %0) #1 {
  %2 = getelementptr inbounds nuw i8, ptr %0, i64 144
  store ptr null, ptr %2, align 8, !tbaa !34
  %3 = getelementptr inbounds nuw i8, ptr %0, i64 152
  store i8 0, ptr %3, align 8, !tbaa !37
  %4 = getelementptr inbounds nuw i8, ptr %0, i64 153
  store i8 0, ptr %4, align 1, !tbaa !38
  ret void
}